; ModuleID = '54/396.c'
source_filename = "54/396.c"
target datalayout = "e-m:e-p270:32:32-p271:32:32-p272:64:64-i64:64-f80:128-n8:16:32:64-S128"
target triple = "x86_64-pc-linux-gnu"

@.str = private unnamed_addr constant [6 x i8] c"%d %d\00", align 1
@.str.1 = private unnamed_addr constant [4 x i8] c"%d\0A\00", align 1

; Function Attrs: noinline nounwind uwtable
define dso_local void @main() #0 {
  %1 = alloca i32, align 4
  %2 = alloca i32, align 4
  %3 = alloca i32, align 4
  %4 = alloca i32, align 4
  %5 = alloca i32, align 4
  %6 = alloca i32, align 4
  store i32 1, i32* %6, align 4
  %7 = call i32 (i8*, ...) @__isoc99_scanf(i8* getelementptr inbounds ([6 x i8], [6 x i8]* @.str, i64 0, i64 0), i32* %1, i32* %2)
  %8 = load i32, i32* %1, align 4
  %9 = load i32, i32* %2, align 4
  %10 = add nsw i32 %8, %9
  store i32 %10, i32* %3, align 4
  br label %11

11:                                               ; preds = %50, %0
  %12 = load i32, i32* %3, align 4
  store i32 %12, i32* %4, align 4
  store i32 1, i32* %5, align 4
  br label %13

13:                                               ; preds = %41, %11
  %14 = load i32, i32* %5, align 4
  %15 = load i32, i32* %1, align 4
  %16 = icmp sle i32 %14, %15
  br i1 %16, label %17, label %42

17:                                               ; preds = %13
  %18 = load i32, i32* %5, align 4
  %19 = add nsw i32 %18, 1
  store i32 %19, i32* %5, align 4
  %20 = load i32, i32* %4, align 4
  %21 = load i32, i32* %1, align 4
  %22 = srem i32 %20, %21
  %23 = load i32, i32* %2, align 4
  %24 = icmp eq i32 %22, %23
  br i1 %24, label %25, label %40

25:                                               ; preds = %17
  %26 = load i32, i32* %4, align 4
  %27 = load i32, i32* %1, align 4
  %28 = load i32, i32* %2, align 4
  %29 = add nsw i32 %27, %28
  %30 = icmp sge i32 %26, %29
  br i1 %30, label %31, label %40

31:                                               ; preds = %25
  %32 = load i32, i32* %4, align 4
  %33 = load i32, i32* %2, align 4
  %34 = sub nsw i32 %32, %33
  %35 = load i32, i32* %1, align 4
  %36 = sub nsw i32 %35, 1
  %37 = mul nsw i32 %34, %36
  %38 = load i32, i32* %1, align 4
  %39 = sdiv i32 %37, %38
  store i32 %39, i32* %4, align 4
  br label %41

40:                                               ; preds = %25, %17
  store i32 0, i32* %4, align 4
  br label %41

41:                                               ; preds = %40, %31
  br label %13

42:                                               ; preds = %13
  %43 = load i32, i32* %4, align 4
  %44 = load i32, i32* %1, align 4
  %45 = sub nsw i32 %44, 1
  %46 = sdiv i32 %43, %45
  %47 = icmp sge i32 %46, 1
  br i1 %47, label %48, label %49

48:                                               ; preds = %42
  br label %53

49:                                               ; preds = %42
  br label %50

50:                                               ; preds = %49
  %51 = load i32, i32* %3, align 4
  %52 = add nsw i32 %51, 1
  store i32 %52, i32* %3, align 4
  br label %11

53:                                               ; preds = %48
  %54 = load i32, i32* %3, align 4
  %55 = call i32 (i8*, ...) @printf(i8* getelementptr inbounds ([4 x i8], [4 x i8]* @.str.1, i64 0, i64 0), i32 %54)
  ret void
}

declare dso_local i32 @__isoc99_scanf(i8*, ...) #1

declare dso_local i32 @printf(i8*, ...) #1


!llvm.module.flags = !{!0}
!llvm.ident = !{!1}

!0 = !{i32 1, !"wchar_size", i32 4}
!1 = !{!"clang version 10.0.0-4ubuntu1 "}
